target datalayout = "e-m:e-p270:32:32-p271:32:32-p272:64:64-i64:64-i128:128-f80:128-n8:16:32:64-S128"
target triple = "x86_64-pc-linux-gnu"

%struct.Gia_Man_t_ = type { ptr, ptr, i32, i32, i32, i32, ptr, ptr, i32, i32, i32, ptr, ptr, %struct.Vec_Int_t_, %struct.Vec_Int_t_, i32, i32, i32, %struct.Vec_Int_t_, ptr, ptr, ptr, i32, i32, i32, i32, ptr, ptr, ptr, ptr, ptr, i32, i32, ptr, i32, ptr, ptr, ptr, ptr, ptr, ptr, ptr, ptr, ptr, ptr, ptr, ptr, ptr, ptr, ptr, ptr, ptr, ptr, %struct.Vec_Int_t_, %struct.Vec_Int_t_, ptr, ptr, ptr, ptr, ptr, ptr, ptr, ptr, ptr, ptr, ptr, ptr, ptr, ptr, ptr, ptr, ptr, ptr, ptr, ptr, ptr, i32, float, float, ptr, ptr, i32, ptr, ptr, ptr, ptr, ptr, ptr, ptr, ptr, ptr, ptr, ptr, ptr, ptr, ptr, ptr, i64, i64, ptr, ptr, i32, i32, i32, i32, i32, i32, i32, i32, i32, i32, i32, i32, ptr, ptr, ptr, ptr, ptr, ptr, ptr, ptr, i32, i32, i32, ptr, i32, i32, ptr, ptr, ptr, ptr, ptr, ptr, i32, i32, ptr, %struct.Vec_Int_t_, %struct.Vec_Int_t_, %struct.Vec_Int_t_, ptr, ptr, ptr, i32, i32, i32, i32, ptr, ptr, ptr, ptr, ptr }
%struct.Vec_Int_t_ = type { i32, i32, ptr }
%struct.Gia_Obj_t_ = type <{ i64, i32 }>

; Function Attrs: inlinehint nounwind uwtable
define internal i32 @Abc_LitNotCond(i32 noundef %0, i32 noundef %1) #2 {
  %3 = alloca i32, align 4
  %4 = alloca i32, align 4
  store i32 %0, ptr %3, align 4, !tbaa !34
  store i32 %1, ptr %4, align 4, !tbaa !34
  %5 = load i32, ptr %3, align 4, !tbaa !34
  %6 = load i32, ptr %4, align 4, !tbaa !34
  %7 = icmp sgt i32 %6, 0
  %8 = zext i1 %7 to i32
  %9 = xor i32 %5, %8
  ret i32 %9
}

; Function Attrs: inlinehint nounwind uwtable
define internal i32 @Abc_LitIsCompl(i32 noundef %0) #2 {
  %2 = alloca i32, align 4
  store i32 %0, ptr %2, align 4, !tbaa !34
  %3 = load i32, ptr %2, align 4, !tbaa !34
  %4 = and i32 %3, 1
  ret i32 %4
}

; Function Attrs: inlinehint nounwind uwtable
define internal void @Gia_ObjSetValue(ptr noundef %0, i32 noundef %1) #2 {
  %3 = alloca ptr, align 8
  %4 = alloca i32, align 4
  store ptr %0, ptr %3, align 8, !tbaa !43
  store i32 %1, ptr %4, align 4, !tbaa !34
  %5 = load i32, ptr %4, align 4, !tbaa !34
  %6 = load ptr, ptr %3, align 8, !tbaa !43
  %7 = getelementptr inbounds nuw %struct.Gia_Obj_t_, ptr %6, i32 0, i32 1
  store i32 %5, ptr %7, align 4, !tbaa !48
  ret void
}

; Function Attrs: inlinehint nounwind uwtable
define internal i32 @Abc_Lit2Var(i32 noundef %0) #2 {
  %2 = alloca i32, align 4
  store i32 %0, ptr %2, align 4, !tbaa !34
  %3 = load i32, ptr %2, align 4, !tbaa !34
  %4 = ashr i32 %3, 1
  ret i32 %4
}

; Function Attrs: inlinehint nounwind uwtable
define internal i32 @Gia_ObjValue(ptr noundef %0) #2 {
  %2 = alloca ptr, align 8
  store ptr %0, ptr %2, align 8, !tbaa !43
  %3 = load ptr, ptr %2, align 8, !tbaa !43
  %4 = getelementptr inbounds nuw %struct.Gia_Obj_t_, ptr %3, i32 0, i32 1
  %5 = load i32, ptr %4, align 4, !tbaa !48
  ret i32 %5
}

; Function Attrs: inlinehint nounwind uwtable
define internal ptr @Gia_ManObj(ptr noundef %0, i32 noundef %1) #2 {
  %3 = alloca ptr, align 8
  %4 = alloca i32, align 4
  store ptr %0, ptr %3, align 8, !tbaa !3
  store i32 %1, ptr %4, align 4, !tbaa !34
  %5 = load ptr, ptr %3, align 8, !tbaa !3
  %6 = getelementptr inbounds nuw %struct.Gia_Man_t_, ptr %5, i32 0, i32 6
  %7 = load ptr, ptr %6, align 8, !tbaa !44
  %8 = load i32, ptr %4, align 4, !tbaa !34
  %9 = sext i32 %8 to i64
  %10 = getelementptr inbounds %struct.Gia_Obj_t_, ptr %7, i64 %9
  ret ptr %10
}

; Function Attrs: nounwind uwtable
define void @Gia_ManCleanupRemap(ptr noundef %0, ptr noundef %1) #0 {
  %3 = alloca ptr, align 8
  %4 = alloca ptr, align 8
  %5 = alloca ptr, align 8
  %6 = alloca ptr, align 8
  %7 = alloca i32, align 4
  %8 = alloca i32, align 4
  store ptr %0, ptr %3, align 8, !tbaa !3
  store ptr %1, ptr %4, align 8, !tbaa !3
  call void @llvm.lifetime.start.p0(i64 8, ptr %5) #12
  call void @llvm.lifetime.start.p0(i64 8, ptr %6) #12
  call void @llvm.lifetime.start.p0(i64 4, ptr %7) #12
  call void @llvm.lifetime.start.p0(i64 4, ptr %8) #12
  store i32 1, ptr %7, align 4, !tbaa !34
  br label %9

9:                                                ; preds = %51, %2
  %10 = load i32, ptr %7, align 4, !tbaa !34
  %11 = load ptr, ptr %3, align 8, !tbaa !3
  %12 = getelementptr inbounds nuw %struct.Gia_Man_t_, ptr %11, i32 0, i32 4
  %13 = load i32, ptr %12, align 8, !tbaa !45
  %14 = icmp slt i32 %10, %13
  br i1 %14, label %15, label %20

15:                                               ; preds = %9
  %16 = load ptr, ptr %3, align 8, !tbaa !3
  %17 = load i32, ptr %7, align 4, !tbaa !34
  %18 = call ptr @Gia_ManObj(ptr noundef %16, i32 noundef %17)
  store ptr %18, ptr %5, align 8, !tbaa !43
  %19 = icmp ne ptr %18, null
  br label %20

20:                                               ; preds = %15, %9
  %21 = phi i1 [ false, %9 ], [ %19, %15 ]
  br i1 %21, label %22, label %54

22:                                               ; preds = %20
  %23 = load ptr, ptr %5, align 8, !tbaa !43
  %24 = call i32 @Gia_ObjValue(ptr noundef %23)
  store i32 %24, ptr %8, align 4, !tbaa !34
  %25 = load i32, ptr %8, align 4, !tbaa !34
  %26 = icmp eq i32 %25, -1
  br i1 %26, label %27, label %28

27:                                               ; preds = %22
  br label %51

28:                                               ; preds = %22
  %29 = load ptr, ptr %4, align 8, !tbaa !3
  %30 = load i32, ptr %8, align 4, !tbaa !34
  %31 = call i32 @Abc_Lit2Var(i32 noundef %30)
  %32 = call ptr @Gia_ManObj(ptr noundef %29, i32 noundef %31)
  store ptr %32, ptr %6, align 8, !tbaa !43
  %33 = load ptr, ptr %6, align 8, !tbaa !43
  %34 = getelementptr inbounds nuw %struct.Gia_Obj_t_, ptr %33, i32 0, i32 1
  %35 = load i32, ptr %34, align 4, !tbaa !48
  %36 = icmp eq i32 %35, -1
  br i1 %36, label %37, label %42

37:                                               ; preds = %28
  %38 = load ptr, ptr %5, align 8, !tbaa !43
  %39 = load ptr, ptr %6, align 8, !tbaa !43
  %40 = getelementptr inbounds nuw %struct.Gia_Obj_t_, ptr %39, i32 0, i32 1
  %41 = load i32, ptr %40, align 4, !tbaa !48
  call void @Gia_ObjSetValue(ptr noundef %38, i32 noundef %41)
  br label %50

42:                                               ; preds = %28
  %43 = load ptr, ptr %5, align 8, !tbaa !43
  %44 = load ptr, ptr %6, align 8, !tbaa !43
  %45 = getelementptr inbounds nuw %struct.Gia_Obj_t_, ptr %44, i32 0, i32 1
  %46 = load i32, ptr %45, align 4, !tbaa !48
  %47 = load i32, ptr %8, align 4, !tbaa !34
  %48 = call i32 @Abc_LitIsCompl(i32 noundef %47)
  %49 = call i32 @Abc_LitNotCond(i32 noundef %46, i32 noundef %48)
  call void @Gia_ObjSetValue(ptr noundef %43, i32 noundef %49)
  br label %50

50:                                               ; preds = %42, %37
  br label %51

51:                                               ; preds = %50, %27
  %52 = load i32, ptr %7, align 4, !tbaa !34
  %53 = add nsw i32 %52, 1
  store i32 %53, ptr %7, align 4, !tbaa !34
  br label %9, !llvm.loop !83

54:                                               ; preds = %20
  call void @llvm.lifetime.end.p0(i64 4, ptr %8) #12
  call void @llvm.lifetime.end.p0(i64 4, ptr %7) #12
  call void @llvm.lifetime.end.p0(i64 8, ptr %6) #12
  call void @llvm.lifetime.end.p0(i64 8, ptr %5) #12
  ret void
}