; Function Attrs: nofree norecurse nosync nounwind memory(readwrite, inaccessiblemem: none) uwtable
define void @Gia_ManCleanupRemap(ptr noundef readonly captures(none) %0, ptr noundef readonly captures(none) %1) local_unnamed_addr #9 {
  %3 = getelementptr inbounds nuw i8, ptr %0, i64 24
  %4 = load i32, ptr %3, align 8, !tbaa !41
  %5 = icmp sgt i32 %4, 1
  br i1 %5, label %.lr.ph, label %.critedge

.lr.ph:                                           ; preds = %2
  %6 = getelementptr i8, ptr %0, i64 32
  %.val17 = load ptr, ptr %6, align 8, !tbaa !39
  %7 = getelementptr i8, ptr %1, i64 32
  %wide.trip.count = zext nneg i32 %4 to i64
  br label %8

8:                                                ; preds = %.lr.ph, %18
  %indvars.iv = phi i64 [ 1, %.lr.ph ], [ %indvars.iv.next, %18 ]
  %9 = getelementptr %struct.Gia_Obj_t_, ptr %.val17, i64 %indvars.iv, i32 1
  %.val18 = load i32, ptr %9, align 4, !tbaa !45
  %10 = icmp eq i32 %.val18, -1
  br i1 %10, label %18, label %.sink.split

.sink.split:                                      ; preds = %8
  %11 = ashr i32 %.val18, 1
  %.val = load ptr, ptr %7, align 8, !tbaa !39
  %12 = sext i32 %11 to i64
  %13 = getelementptr inbounds %struct.Gia_Obj_t_, ptr %.val, i64 %12, i32 1
  %14 = load i32, ptr %13, align 4, !tbaa !45
  %15 = icmp eq i32 %14, -1
  %16 = and i32 %.val18, 1
  %17 = xor i32 %14, %16
  %.sink = select i1 %15, i32 -1, i32 %17
  store i32 %.sink, ptr %9, align 4, !tbaa !45
  br label %18

18:                                               ; preds = %.sink.split, %8
  %indvars.iv.next = add nuw nsw i64 %indvars.iv, 1
  %exitcond.not = icmp eq i64 %indvars.iv.next, %wide.trip.count
  br i1 %exitcond.not, label %.critedge, label %8, !llvm.loop !77

.critedge:                                        ; preds = %18, %2
  ret void
}